target datalayout = "e-m:e-p270:32:32-p271:32:32-p272:64:64-i64:64-i128:128-f80:128-n8:16:32:64-S128"
target triple = "x86_64-pc-linux-gnu"

%"class.ZXing::Content" = type <{ %"class.ZXing::ByteArray", %"class.std::vector.0", %"struct.ZXing::SymbologyIdentifier", i8, i8, [2 x i8] }>
%"class.ZXing::ByteArray" = type { %"class.std::vector" }
%"class.std::vector" = type { %"struct.std::_Vector_base" }
%"struct.std::_Vector_base" = type { %"struct.std::_Vector_base<unsigned char, std::allocator<unsigned char>>::_Vector_impl" }
%"struct.std::_Vector_base<unsigned char, std::allocator<unsigned char>>::_Vector_impl" = type { %"struct.std::_Vector_base<unsigned char, std::allocator<unsigned char>>::_Vector_impl_data" }
%"struct.std::_Vector_base<unsigned char, std::allocator<unsigned char>>::_Vector_impl_data" = type { ptr, ptr, ptr }
%"class.std::vector.0" = type { %"struct.std::_Vector_base.1" }
%"struct.std::_Vector_base.1" = type { %"struct.std::_Vector_base<ZXing::Content::Encoding, std::allocator<ZXing::Content::Encoding>>::_Vector_impl" }
%"struct.std::_Vector_base<ZXing::Content::Encoding, std::allocator<ZXing::Content::Encoding>>::_Vector_impl" = type { %"struct.std::_Vector_base<ZXing::Content::Encoding, std::allocator<ZXing::Content::Encoding>>::_Vector_impl_data" }
%"struct.std::_Vector_base<ZXing::Content::Encoding, std::allocator<ZXing::Content::Encoding>>::_Vector_impl_data" = type { ptr, ptr, ptr }
%"struct.ZXing::SymbologyIdentifier" = type { i8, i8, i8, i8 }
%"class.std::__cxx11::basic_string" = type { %"struct.std::__cxx11::basic_string<char>::_Alloc_hider", i64, %union.anon }
%"struct.std::__cxx11::basic_string<char>::_Alloc_hider" = type { ptr }
%union.anon = type { i64, [8 x i8] }

; Function Attrs: mustprogress uwtable
define linkonce_odr void @_ZNK5ZXing7Content4utf8B5cxx11Ev(ptr dead_on_unwind noalias writable sret(%"class.std::__cxx11::basic_string") align 8 %0, ptr noundef nonnull align 8 dereferenceable(54) %1) #0 comdat align 2 {
  %3 = alloca ptr, align 8
  %4 = alloca ptr, align 8
  store ptr %0, ptr %3, align 8
  store ptr %1, ptr %4, align 8
  %5 = load ptr, ptr %4, align 8
  call void @_ZNK5ZXing7Content6renderB5cxx11Eb(ptr dead_on_unwind writable sret(%"class.std::__cxx11::basic_string") align 8 %0, ptr noundef nonnull align 8 dereferenceable(54) %5, i1 noundef zeroext false)
  ret void
}

; Function Attrs: mustprogress uwtable
define internal noundef i32 @_ZN5ZXing6Pdf417L28DecodeMacroOptionalTextFieldERKSt6vectorIiSaIiEEiRNSt7__cxx1112basic_stringIcSt11char_traitsIcESaIcEEE(ptr noundef nonnull align 8 dereferenceable(24) %0, i32 noundef %1, ptr noundef nonnull align 8 dereferenceable(32) %2) #0 personality ptr @__gxx_personality_v0 {
  %4 = alloca ptr, align 8
  %5 = alloca i32, align 4
  %6 = alloca ptr, align 8
  %7 = alloca %"class.ZXing::Content", align 8
  %8 = alloca ptr, align 8
  %9 = alloca i32, align 4
  %10 = alloca %"class.std::__cxx11::basic_string", align 8
  store ptr %0, ptr %4, align 8
  store i32 %1, ptr %5, align 4
  store ptr %2, ptr %6, align 8
  call void @_ZN5ZXing7ContentC1Ev(ptr noundef nonnull align 8 dereferenceable(54) %7)
  %11 = getelementptr inbounds %"class.ZXing::Content", ptr %7, i32 0, i32 3
  store i8 17, ptr %11, align 4
  %12 = load ptr, ptr %4, align 8
  %13 = load i32, ptr %5, align 4
  %14 = invoke noundef i32 @_ZN5ZXing6Pdf417L14TextCompactionERKSt6vectorIiSaIiEEiRNS_7ContentE(ptr noundef nonnull align 8 dereferenceable(24) %12, i32 noundef %13, ptr noundef nonnull align 8 dereferenceable(54) %7)
          to label %15 unwind label %20

15:                                               ; preds = %3
  store i32 %14, ptr %5, align 4
  invoke void @_ZNK5ZXing7Content4utf8B5cxx11Ev(ptr dead_on_unwind writable sret(%"class.std::__cxx11::basic_string") align 8 %10, ptr noundef nonnull align 8 dereferenceable(54) %7)
          to label %16 unwind label %20

16:                                               ; preds = %15
  %17 = load ptr, ptr %6, align 8
  %18 = call noundef nonnull align 8 dereferenceable(32) ptr @_ZNSt7__cxx1112basic_stringIcSt11char_traitsIcESaIcEEaSEOS4_(ptr noundef nonnull align 8 dereferenceable(32) %17, ptr noundef nonnull align 8 dereferenceable(32) %10) #10
  call void @_ZNSt7__cxx1112basic_stringIcSt11char_traitsIcESaIcEED1Ev(ptr noundef nonnull align 8 dereferenceable(32) %10) #10
  %19 = load i32, ptr %5, align 4
  call void @_ZN5ZXing7ContentD2Ev(ptr noundef nonnull align 8 dereferenceable(54) %7) #10
  ret i32 %19

20:                                               ; preds = %15, %3
  %21 = landingpad { ptr, i32 }
          cleanup
  %22 = extractvalue { ptr, i32 } %21, 0
  store ptr %22, ptr %8, align 8
  %23 = extractvalue { ptr, i32 } %21, 1
  store i32 %23, ptr %9, align 4
  call void @_ZN5ZXing7ContentD2Ev(ptr noundef nonnull align 8 dereferenceable(54) %7) #10
  br label %24

24:                                               ; preds = %20
  %25 = load ptr, ptr %8, align 8
  %26 = load i32, ptr %9, align 4
  %27 = insertvalue { ptr, i32 } poison, ptr %25, 0
  %28 = insertvalue { ptr, i32 } %27, i32 %26, 1
  resume { ptr, i32 } %28
}