; Function Attrs: mustprogress uwtable
define internal fastcc noundef i32 @_ZN5ZXing6Pdf417L28DecodeMacroOptionalTextFieldERKSt6vectorIiSaIiEEiRNSt7__cxx1112basic_stringIcSt11char_traitsIcESaIcEEE(ptr nocapture noundef nonnull readonly align 8 dereferenceable(24) %0, i32 noundef %1, ptr noundef nonnull align 8 dereferenceable(32) %2) unnamed_addr #0 personality ptr @__gxx_personality_v0 {
  %4 = alloca %"class.ZXing::Content", align 8
  %5 = alloca %"class.std::__cxx11::basic_string", align 8
  call void @_ZN5ZXing7ContentC1Ev(ptr noundef nonnull align 8 dereferenceable(54) %4)
  %6 = getelementptr inbounds i8, ptr %4, i64 52
  store i8 17, ptr %6, align 4
  %7 = invoke fastcc noundef i32 @_ZN5ZXing6Pdf417L14TextCompactionERKSt6vectorIiSaIiEEiRNS_7ContentE(ptr noundef nonnull align 8 dereferenceable(24) %0, i32 noundef %1, ptr noundef nonnull align 8 dereferenceable(54) %4)
          to label %8 unwind label %15

8:                                                ; preds = %3
  invoke void @_ZNK5ZXing7Content6renderB5cxx11Eb(ptr dead_on_unwind nonnull writable sret(%"class.std::__cxx11::basic_string") align 8 %5, ptr noundef nonnull align 8 dereferenceable(54) %4, i1 noundef zeroext false)
          to label %_ZNK5ZXing7Content4utf8B5cxx11Ev.exit unwind label %15

_ZNK5ZXing7Content4utf8B5cxx11Ev.exit:            ; preds = %8
  %9 = call noundef nonnull align 8 dereferenceable(32) ptr @_ZNSt7__cxx1112basic_stringIcSt11char_traitsIcESaIcEEaSEOS4_(ptr noundef nonnull align 8 dereferenceable(32) %2, ptr noundef nonnull align 8 dereferenceable(32) %5) #20
  call void @_ZNSt7__cxx1112basic_stringIcSt11char_traitsIcESaIcEED1Ev(ptr noundef nonnull align 8 dereferenceable(32) %5) #20
  %10 = getelementptr inbounds i8, ptr %4, i64 24
  %11 = load ptr, ptr %10, align 8
  %.not.i.i.i.i = icmp eq ptr %11, null
  br i1 %.not.i.i.i.i, label %_ZNSt6vectorIN5ZXing7Content8EncodingESaIS2_EED2Ev.exit.i, label %12

12:                                               ; preds = %_ZNK5ZXing7Content4utf8B5cxx11Ev.exit
  call void @_ZdlPv(ptr noundef nonnull %11) #22
  br label %_ZNSt6vectorIN5ZXing7Content8EncodingESaIS2_EED2Ev.exit.i

_ZNSt6vectorIN5ZXing7Content8EncodingESaIS2_EED2Ev.exit.i: ; preds = %12, %_ZNK5ZXing7Content4utf8B5cxx11Ev.exit
  %13 = load ptr, ptr %4, align 8
  %.not.i.i.i.i.i = icmp eq ptr %13, null
  br i1 %.not.i.i.i.i.i, label %_ZN5ZXing7ContentD2Ev.exit, label %14

14:                                               ; preds = %_ZNSt6vectorIN5ZXing7Content8EncodingESaIS2_EED2Ev.exit.i
  call void @_ZdlPv(ptr noundef nonnull %13) #22
  br label %_ZN5ZXing7ContentD2Ev.exit

_ZN5ZXing7ContentD2Ev.exit:                       ; preds = %_ZNSt6vectorIN5ZXing7Content8EncodingESaIS2_EED2Ev.exit.i, %14
  ret i32 %7

15:                                               ; preds = %8, %3
  %16 = landingpad { ptr, i32 }
          cleanup
  call void @_ZN5ZXing7ContentD2Ev(ptr noundef nonnull align 8 dereferenceable(54) %4) #20
  resume { ptr, i32 } %16
}